target datalayout = "e-m:e-p270:32:32-p271:32:32-p272:64:64-i64:64-i128:128-f80:128-n8:16:32:64-S128"
target triple = "x86_64-pc-linux-gnu"

%class.colvarproxy_script = type <{ ptr, ptr, i8, [7 x i8] }>

; Function Attrs: mustprogress nounwind uwtable
define void @_ZN18colvarproxy_scriptD2Ev(ptr noundef nonnull align 8 dereferenceable(17) %0) unnamed_addr #0 align 2 {
  %2 = alloca ptr, align 8
  store ptr %0, ptr %2, align 8, !tbaa !34
  %3 = load ptr, ptr %2, align 8
  store ptr getelementptr inbounds inrange(-16, 40) ({ [7 x ptr] }, ptr @_ZTV18colvarproxy_script, i32 0, i32 0, i32 2), ptr %3, align 8, !tbaa !44
  %4 = getelementptr inbounds nuw %class.colvarproxy_script, ptr %3, i32 0, i32 1
  %5 = load ptr, ptr %4, align 8, !tbaa !258
  %6 = icmp ne ptr %5, null
  br i1 %6, label %7, label %14

7:                                                ; preds = %1
  %8 = getelementptr inbounds nuw %class.colvarproxy_script, ptr %3, i32 0, i32 1
  %9 = load ptr, ptr %8, align 8, !tbaa !258
  %10 = icmp eq ptr %9, null
  br i1 %10, label %12, label %11

11:                                               ; preds = %7
  call void @_ZN12colvarscriptD1Ev(ptr noundef nonnull align 8 dereferenceable(304) %9) #18
  call void @_ZdlPvm(ptr noundef %9, i64 noundef 304) #20
  br label %12

12:                                               ; preds = %11, %7
  %13 = getelementptr inbounds nuw %class.colvarproxy_script, ptr %3, i32 0, i32 1
  store ptr null, ptr %13, align 8, !tbaa !258
  br label %14

14:                                               ; preds = %12, %1
  ret void
}