; Function Attrs: mustprogress nounwind uwtable
define void @_ZN18colvarproxy_scriptD2Ev(ptr noundef nonnull align 8 captures(none) dereferenceable(17) initializes((0, 8)) %0) unnamed_addr #0 align 2 {
  store ptr getelementptr inbounds nuw inrange(-16, 40) (i8, ptr @_ZTV18colvarproxy_script, i64 16), ptr %0, align 8, !tbaa !36
  %2 = getelementptr inbounds nuw i8, ptr %0, i64 8
  %3 = load ptr, ptr %2, align 8, !tbaa !175
  %.not = icmp eq ptr %3, null
  br i1 %.not, label %5, label %4

4:                                                ; preds = %1
  tail call void @_ZN12colvarscriptD1Ev(ptr noundef nonnull align 8 dereferenceable(304) %3) #24
  tail call void @_ZdlPvm(ptr noundef nonnull %3, i64 noundef 304) #33
  store ptr null, ptr %2, align 8, !tbaa !175
  br label %5

5:                                                ; preds = %4, %1
  ret void
}